target datalayout = "e-m:e-p270:32:32-p271:32:32-p272:64:64-i64:64-i128:128-f80:128-n8:16:32:64-S128"
target triple = "x86_64-pc-linux-gnu"

%"class.icu_77::UnicodeString" = type { %"class.icu_77::Replaceable", %"union.icu_77::UnicodeString::StackBufferOrFields" }
%"class.icu_77::Replaceable" = type { %"class.icu_77::UObject" }
%"class.icu_77::UObject" = type { ptr }
%"union.icu_77::UnicodeString::StackBufferOrFields" = type { %struct.anon.0, [32 x i8] }
%struct.anon.0 = type { i16, i32, i32, ptr }
%"class.icu_77::VTimeZone" = type { %"class.icu_77::BasicTimeZone", ptr, ptr, %"class.icu_77::UnicodeString", double, %"class.icu_77::UnicodeString", %"class.icu_77::UnicodeString" }
%"class.icu_77::BasicTimeZone" = type { %"class.icu_77::TimeZone" }
%"class.icu_77::TimeZone" = type { %"class.icu_77::UObject", %"class.icu_77::UnicodeString" }

; Function Attrs: mustprogress nounwind uwtable
define void @_ZN6icu_779VTimeZoneD2Ev(ptr noundef nonnull align 8 dereferenceable(288) %0) unnamed_addr #0 align 2 {
  %2 = alloca ptr, align 8
  store ptr %0, ptr %2, align 8, !tbaa !29
  %3 = load ptr, ptr %2, align 8
  store ptr getelementptr inbounds inrange(-16, 176) ({ [24 x ptr] }, ptr @_ZTVN6icu_779VTimeZoneE, i32 0, i32 0, i32 2), ptr %3, align 8, !tbaa !31
  %4 = getelementptr inbounds nuw %"class.icu_77::VTimeZone", ptr %3, i32 0, i32 1
  %5 = load ptr, ptr %4, align 8, !tbaa !33
  %6 = icmp eq ptr %5, null
  br i1 %6, label %11, label %7

7:                                                ; preds = %1
  %8 = load ptr, ptr %5, align 8, !tbaa !31
  %9 = getelementptr inbounds ptr, ptr %8, i64 1
  %10 = load ptr, ptr %9, align 8
  call void %10(ptr noundef nonnull align 8 dereferenceable(72) %5) #11
  br label %11

11:                                               ; preds = %7, %1
  %12 = getelementptr inbounds nuw %"class.icu_77::VTimeZone", ptr %3, i32 0, i32 2
  %13 = load ptr, ptr %12, align 8, !tbaa !43
  %14 = icmp eq ptr %13, null
  br i1 %14, label %19, label %15

15:                                               ; preds = %11
  %16 = load ptr, ptr %13, align 8, !tbaa !31
  %17 = getelementptr inbounds ptr, ptr %16, i64 1
  %18 = load ptr, ptr %17, align 8
  call void %18(ptr noundef nonnull align 8 dereferenceable(40) %13) #11
  br label %19

19:                                               ; preds = %15, %11
  %20 = getelementptr inbounds nuw %"class.icu_77::VTimeZone", ptr %3, i32 0, i32 6
  call void @_ZN6icu_7713UnicodeStringD1Ev(ptr noundef nonnull align 8 dereferenceable(64) %20) #11
  %21 = getelementptr inbounds nuw %"class.icu_77::VTimeZone", ptr %3, i32 0, i32 5
  call void @_ZN6icu_7713UnicodeStringD1Ev(ptr noundef nonnull align 8 dereferenceable(64) %21) #11
  %22 = getelementptr inbounds nuw %"class.icu_77::VTimeZone", ptr %3, i32 0, i32 3
  call void @_ZN6icu_7713UnicodeStringD1Ev(ptr noundef nonnull align 8 dereferenceable(64) %22) #11
  call void @_ZN6icu_7713BasicTimeZoneD2Ev(ptr noundef nonnull align 8 dereferenceable(72) %3) #11
  ret void
}