; Function Attrs: mustprogress nounwind uwtable
define void @_ZN6icu_779VTimeZoneD2Ev(ptr noundef nonnull align 8 dereferenceable(288) initializes((0, 8)) %0) unnamed_addr #7 align 2 {
  store ptr getelementptr inbounds nuw inrange(-16, 176) (i8, ptr @_ZTVN6icu_779VTimeZoneE, i64 16), ptr %0, align 8, !tbaa !17
  %2 = getelementptr inbounds nuw i8, ptr %0, i64 72
  %3 = load ptr, ptr %2, align 8, !tbaa !29
  %4 = icmp eq ptr %3, null
  br i1 %4, label %9, label %5

5:                                                ; preds = %1
  %6 = load ptr, ptr %3, align 8, !tbaa !17
  %7 = getelementptr inbounds nuw i8, ptr %6, i64 8
  %8 = load ptr, ptr %7, align 8
  tail call void %8(ptr noundef nonnull align 8 dereferenceable(72) %3) #16
  br label %9

9:                                                ; preds = %5, %1
  %10 = getelementptr inbounds nuw i8, ptr %0, i64 80
  %11 = load ptr, ptr %10, align 8, !tbaa !30
  %12 = icmp eq ptr %11, null
  br i1 %12, label %17, label %13

13:                                               ; preds = %9
  %14 = load ptr, ptr %11, align 8, !tbaa !17
  %15 = getelementptr inbounds nuw i8, ptr %14, i64 8
  %16 = load ptr, ptr %15, align 8
  tail call void %16(ptr noundef nonnull align 8 dereferenceable(40) %11) #16
  br label %17

17:                                               ; preds = %13, %9
  %18 = getelementptr inbounds nuw i8, ptr %0, i64 224
  tail call void @_ZN6icu_7713UnicodeStringD1Ev(ptr noundef nonnull align 8 dereferenceable(64) %18) #16
  %19 = getelementptr inbounds nuw i8, ptr %0, i64 160
  tail call void @_ZN6icu_7713UnicodeStringD1Ev(ptr noundef nonnull align 8 dereferenceable(64) %19) #16
  %20 = getelementptr inbounds nuw i8, ptr %0, i64 88
  tail call void @_ZN6icu_7713UnicodeStringD1Ev(ptr noundef nonnull align 8 dereferenceable(64) %20) #16
  tail call void @_ZN6icu_7713BasicTimeZoneD2Ev(ptr noundef nonnull align 8 dereferenceable(72) %0) #16
  ret void
}